target datalayout = "e-m:e-p270:32:32-p271:32:32-p272:64:64-i64:64-i128:128-f80:128-n8:16:32:64-S128"
target triple = "x86_64-pc-linux-gnu"

%"class.llvm::cl::Option" = type { ptr, i16, i16, i16, i16, %"class.llvm::StringRef", %"class.llvm::StringRef", %"class.llvm::StringRef", %"class.llvm::SmallVector", %"class.llvm::SmallPtrSet" }
%"class.llvm::StringRef" = type { ptr, i64 }
%"class.llvm::SmallVector" = type { %"class.llvm::SmallVectorImpl", %"struct.llvm::SmallVectorStorage" }
%"class.llvm::SmallVectorImpl" = type { %"class.llvm::SmallVectorTemplateBase" }
%"class.llvm::SmallVectorTemplateBase" = type { %"class.llvm::SmallVectorTemplateCommon" }
%"class.llvm::SmallVectorTemplateCommon" = type { %"class.llvm::SmallVectorBase" }
%"class.llvm::SmallVectorBase" = type { ptr, i32, i32 }
%"struct.llvm::SmallVectorStorage" = type { [8 x i8] }
%"class.llvm::SmallPtrSet" = type { %"class.llvm::SmallPtrSetImpl.base", [1 x ptr] }
%"class.llvm::SmallPtrSetImpl.base" = type { %"class.llvm::SmallPtrSetImplBase.base" }
%"class.llvm::SmallPtrSetImplBase.base" = type <{ ptr, ptr, i32, i32, i32 }>
%"struct.llvm::cl::GenericOptionValue" = type { ptr }
%"class.std::_Function_base" = type { %"union.std::_Any_data", ptr }
%"union.std::_Any_data" = type { %"union.std::_Nocopy_types" }
%"union.std::_Nocopy_types" = type { { i64, i64 } }
%"class.llvm::cl::opt.14" = type { %"class.llvm::cl::Option", %"class.llvm::cl::opt_storage.15", %"class.llvm::cl::parser.22", %"class.std::function.28" }
%"class.llvm::cl::opt_storage.15" = type { i32, [4 x i8], %"struct.llvm::cl::OptionValue.16" }
%"struct.llvm::cl::OptionValue.16" = type { %"struct.llvm::cl::OptionValueBase.base.20", [3 x i8] }
%"struct.llvm::cl::OptionValueBase.base.20" = type { %"class.llvm::cl::OptionValueCopy.base.19" }
%"class.llvm::cl::OptionValueCopy.base.19" = type <{ %"struct.llvm::cl::GenericOptionValue", i32, i8 }>
%"class.llvm::cl::parser.22" = type { %"class.llvm::cl::generic_parser_base", %"class.llvm::SmallVector.23" }
%"class.llvm::cl::generic_parser_base" = type { ptr, ptr }
%"class.llvm::SmallVector.23" = type { %"class.llvm::SmallVectorImpl.24", %"struct.llvm::SmallVectorStorage.27" }
%"class.llvm::SmallVectorImpl.24" = type { %"class.llvm::SmallVectorTemplateBase.25" }
%"class.llvm::SmallVectorTemplateBase.25" = type { %"class.llvm::SmallVectorTemplateCommon.26" }
%"class.llvm::SmallVectorTemplateCommon.26" = type { %"class.llvm::SmallVectorBase" }
%"struct.llvm::SmallVectorStorage.27" = type { [384 x i8] }
%"class.std::function.28" = type { %"class.std::_Function_base", ptr }
%"struct.llvm::LoopVectorizeHints::Hint" = type { ptr, i32, i32 }
%"class.llvm::ElementCount" = type { %"class.llvm::details::FixedOrScalableQuantity.base", [3 x i8] }
%"class.llvm::details::FixedOrScalableQuantity.base" = type <{ i32, i8 }>
%"class.llvm::LoopVectorizeHints" = type { %"struct.llvm::LoopVectorizeHints::Hint", %"struct.llvm::LoopVectorizeHints::Hint", %"struct.llvm::LoopVectorizeHints::Hint", %"struct.llvm::LoopVectorizeHints::Hint", %"struct.llvm::LoopVectorizeHints::Hint", %"struct.llvm::LoopVectorizeHints::Hint", i8, ptr, ptr }
%"class.llvm::details::FixedOrScalableQuantity" = type <{ i32, i8, [3 x i8] }>

@_ZL26ForceScalableVectorization = internal global %"class.llvm::cl::opt.14" zeroinitializer, align 8
@.str.22 = private unnamed_addr constant [16 x i8] c"vectorize.width\00", align 1
@_ZN4llvm16VectorizerParams19VectorizationFactorE = external global i32, align 4
@.str.23 = private unnamed_addr constant [17 x i8] c"interleave.count\00", align 1
@.str.24 = private unnamed_addr constant [17 x i8] c"vectorize.enable\00", align 1
@.str.25 = private unnamed_addr constant [13 x i8] c"isvectorized\00", align 1
@.str.26 = private unnamed_addr constant [27 x i8] c"vectorize.predicate.enable\00", align 1
@.str.27 = private unnamed_addr constant [26 x i8] c"vectorize.scalable.enable\00", align 1
@_ZN4llvm16VectorizerParams23VectorizationInterleaveE = external global i32, align 4

; Function Attrs: mustprogress nounwind uwtable
define linkonce_odr hidden void @_ZN4llvm7details23FixedOrScalableQuantityINS_12ElementCountEjEC2Ejb(ptr noundef nonnull align 4 dereferenceable(5) %0, i32 noundef %1, i1 noundef zeroext %2) unnamed_addr #1 comdat align 2 {
  %4 = alloca ptr, align 8
  %5 = alloca i32, align 4
  %6 = alloca i8, align 1
  store ptr %0, ptr %4, align 8
  store i32 %1, ptr %5, align 4
  %7 = zext i1 %2 to i8
  store i8 %7, ptr %6, align 1
  %8 = load ptr, ptr %4, align 8
  %9 = getelementptr inbounds nuw %"class.llvm::details::FixedOrScalableQuantity", ptr %8, i32 0, i32 0
  %10 = load i32, ptr %5, align 4
  store i32 %10, ptr %9, align 4
  %11 = getelementptr inbounds nuw %"class.llvm::details::FixedOrScalableQuantity", ptr %8, i32 0, i32 1
  %12 = load i8, ptr %6, align 1
  %13 = trunc i8 %12 to i1
  %14 = zext i1 %13 to i8
  store i8 %14, ptr %11, align 4
  ret void
}

; Function Attrs: mustprogress nounwind uwtable
define linkonce_odr hidden void @_ZN4llvm12ElementCountC2Ejb(ptr noundef nonnull align 4 dereferenceable(5) %0, i32 noundef %1, i1 noundef zeroext %2) unnamed_addr #1 comdat align 2 {
  %4 = alloca ptr, align 8
  %5 = alloca i32, align 4
  %6 = alloca i8, align 1
  store ptr %0, ptr %4, align 8
  store i32 %1, ptr %5, align 4
  %7 = zext i1 %2 to i8
  store i8 %7, ptr %6, align 1
  %8 = load ptr, ptr %4, align 8
  %9 = load i32, ptr %5, align 4
  %10 = load i8, ptr %6, align 1
  %11 = trunc i8 %10 to i1
  call void @_ZN4llvm7details23FixedOrScalableQuantityINS_12ElementCountEjEC2Ejb(ptr noundef nonnull align 4 dereferenceable(5) %8, i32 noundef %9, i1 noundef zeroext %11)
  ret void
}

; Function Attrs: mustprogress nounwind uwtable
define linkonce_odr hidden i64 @_ZN4llvm12ElementCount3getEjb(i32 noundef %0, i1 noundef zeroext %1) #1 comdat align 2 {
  %3 = alloca %"class.llvm::ElementCount", align 4
  %4 = alloca i32, align 4
  %5 = alloca i8, align 1
  store i32 %0, ptr %4, align 4
  %6 = zext i1 %1 to i8
  store i8 %6, ptr %5, align 1
  %7 = load i32, ptr %4, align 4
  %8 = load i8, ptr %5, align 1
  %9 = trunc i8 %8 to i1
  call void @_ZN4llvm12ElementCountC2Ejb(ptr noundef nonnull align 4 dereferenceable(5) %3, i32 noundef %7, i1 noundef zeroext %9)
  %10 = load i64, ptr %3, align 4
  ret i64 %10
}

; Function Attrs: mustprogress nounwind uwtable
define linkonce_odr hidden noundef i32 @_ZNK4llvm18LoopVectorizeHints13getInterleaveEv(ptr noundef nonnull align 8 dereferenceable(120) %0) #1 comdat align 2 {
  %2 = alloca i32, align 4
  %3 = alloca ptr, align 8
  store ptr %0, ptr %3, align 8
  %4 = load ptr, ptr %3, align 8
  %5 = getelementptr inbounds nuw %"class.llvm::LoopVectorizeHints", ptr %4, i32 0, i32 1
  %6 = getelementptr inbounds nuw %"struct.llvm::LoopVectorizeHints::Hint", ptr %5, i32 0, i32 1
  %7 = load i32, ptr %6, align 8
  %8 = icmp ne i32 %7, 0
  br i1 %8, label %9, label %13

9:                                                ; preds = %1
  %10 = getelementptr inbounds nuw %"class.llvm::LoopVectorizeHints", ptr %4, i32 0, i32 1
  %11 = getelementptr inbounds nuw %"struct.llvm::LoopVectorizeHints::Hint", ptr %10, i32 0, i32 1
  %12 = load i32, ptr %11, align 8
  store i32 %12, ptr %2, align 4
  br label %21

13:                                               ; preds = %1
  %14 = getelementptr inbounds nuw %"class.llvm::LoopVectorizeHints", ptr %4, i32 0, i32 7
  %15 = load ptr, ptr %14, align 8
  %16 = call noundef i32 @_ZN4llvm23hasUnrollTransformationEPKNS_4LoopE(ptr noundef %15)
  %17 = and i32 %16, 2
  %18 = icmp ne i32 %17, 0
  br i1 %18, label %19, label %20

19:                                               ; preds = %13
  store i32 1, ptr %2, align 4
  br label %21

20:                                               ; preds = %13
  store i32 0, ptr %2, align 4
  br label %21

21:                                               ; preds = %20, %19, %9
  %22 = load i32, ptr %2, align 4
  ret i32 %22
}

; Function Attrs: mustprogress nounwind uwtable
define linkonce_odr hidden noundef zeroext i1 @_ZNK4llvm7details23FixedOrScalableQuantityINS_12ElementCountEjEeqERKS3_(ptr noundef nonnull align 4 dereferenceable(5) %0, ptr noundef nonnull align 4 dereferenceable(5) %1) #1 comdat align 2 {
  %3 = alloca ptr, align 8
  %4 = alloca ptr, align 8
  store ptr %0, ptr %3, align 8
  store ptr %1, ptr %4, align 8
  %5 = load ptr, ptr %3, align 8
  %6 = getelementptr inbounds nuw %"class.llvm::details::FixedOrScalableQuantity", ptr %5, i32 0, i32 0
  %7 = load i32, ptr %6, align 4
  %8 = load ptr, ptr %4, align 8
  %9 = getelementptr inbounds nuw %"class.llvm::details::FixedOrScalableQuantity", ptr %8, i32 0, i32 0
  %10 = load i32, ptr %9, align 4
  %11 = icmp eq i32 %7, %10
  br i1 %11, label %12, label %23

12:                                               ; preds = %2
  %13 = getelementptr inbounds nuw %"class.llvm::details::FixedOrScalableQuantity", ptr %5, i32 0, i32 1
  %14 = load i8, ptr %13, align 4
  %15 = trunc i8 %14 to i1
  %16 = zext i1 %15 to i32
  %17 = load ptr, ptr %4, align 8
  %18 = getelementptr inbounds nuw %"class.llvm::details::FixedOrScalableQuantity", ptr %17, i32 0, i32 1
  %19 = load i8, ptr %18, align 4
  %20 = trunc i8 %19 to i1
  %21 = zext i1 %20 to i32
  %22 = icmp eq i32 %16, %21
  br label %23

23:                                               ; preds = %12, %2
  %24 = phi i1 [ false, %2 ], [ %22, %12 ]
  ret i1 %24
}

; Function Attrs: mustprogress nounwind uwtable
define linkonce_odr hidden i64 @_ZN4llvm12ElementCount8getFixedEj(i32 noundef %0) #1 comdat align 2 {
  %2 = alloca %"class.llvm::ElementCount", align 4
  %3 = alloca i32, align 4
  store i32 %0, ptr %3, align 4
  %4 = load i32, ptr %3, align 4
  call void @_ZN4llvm12ElementCountC2Ejb(ptr noundef nonnull align 4 dereferenceable(5) %2, i32 noundef %4, i1 noundef zeroext false)
  %5 = load i64, ptr %2, align 4
  ret i64 %5
}

; Function Attrs: mustprogress nounwind uwtable
define linkonce_odr hidden i64 @_ZNK4llvm18LoopVectorizeHints8getWidthEv(ptr noundef nonnull align 8 dereferenceable(120) %0) #1 comdat align 2 {
  %2 = alloca %"class.llvm::ElementCount", align 4
  %3 = alloca ptr, align 8
  store ptr %0, ptr %3, align 8
  %4 = load ptr, ptr %3, align 8
  %5 = getelementptr inbounds nuw %"class.llvm::LoopVectorizeHints", ptr %4, i32 0, i32 0
  %6 = getelementptr inbounds nuw %"struct.llvm::LoopVectorizeHints::Hint", ptr %5, i32 0, i32 1
  %7 = load i32, ptr %6, align 8
  %8 = getelementptr inbounds nuw %"class.llvm::LoopVectorizeHints", ptr %4, i32 0, i32 5
  %9 = getelementptr inbounds nuw %"struct.llvm::LoopVectorizeHints::Hint", ptr %8, i32 0, i32 1
  %10 = load i32, ptr %9, align 8
  %11 = icmp eq i32 %10, 1
  %12 = call i64 @_ZN4llvm12ElementCount3getEjb(i32 noundef %7, i1 noundef zeroext %11)
  %13 = trunc i64 %12 to i40
  store i40 %13, ptr %2, align 4
  %14 = load i64, ptr %2, align 4
  ret i64 %14
}

; Function Attrs: mustprogress nounwind uwtable
define linkonce_odr hidden noundef nonnull align 4 dereferenceable(4) ptr @_ZN4llvm2cl11opt_storageINS_18LoopVectorizeHints17ScalableForceKindELb0ELb0EE8getValueEv(ptr noundef nonnull align 8 dereferenceable(24) %0) #1 comdat align 2 {
  %2 = alloca ptr, align 8
  store ptr %0, ptr %2, align 8
  %3 = load ptr, ptr %2, align 8
  %4 = getelementptr inbounds nuw %"class.llvm::cl::opt_storage.15", ptr %3, i32 0, i32 0
  ret ptr %4
}

; Function Attrs: mustprogress nounwind uwtable
define linkonce_odr hidden void @_ZN4llvm18LoopVectorizeHints4HintC2EPKcjNS0_8HintKindE(ptr noundef nonnull align 8 dereferenceable(16) %0, ptr noundef %1, i32 noundef %2, i32 noundef %3) unnamed_addr #1 comdat align 2 {
  %5 = alloca ptr, align 8
  %6 = alloca ptr, align 8
  %7 = alloca i32, align 4
  %8 = alloca i32, align 4
  store ptr %0, ptr %5, align 8
  store ptr %1, ptr %6, align 8
  store i32 %2, ptr %7, align 4
  store i32 %3, ptr %8, align 4
  %9 = load ptr, ptr %5, align 8
  %10 = getelementptr inbounds nuw %"struct.llvm::LoopVectorizeHints::Hint", ptr %9, i32 0, i32 0
  %11 = load ptr, ptr %6, align 8
  store ptr %11, ptr %10, align 8
  %12 = getelementptr inbounds nuw %"struct.llvm::LoopVectorizeHints::Hint", ptr %9, i32 0, i32 1
  %13 = load i32, ptr %7, align 4
  store i32 %13, ptr %12, align 8
  %14 = getelementptr inbounds nuw %"struct.llvm::LoopVectorizeHints::Hint", ptr %9, i32 0, i32 2
  %15 = load i32, ptr %8, align 4
  store i32 %15, ptr %14, align 4
  ret void
}

; Function Attrs: mustprogress nounwind uwtable
define dso_local void @_ZN4llvm18LoopVectorizeHintsC2EPKNS_4LoopEbRNS_25OptimizationRemarkEmitterEPKNS_19TargetTransformInfoE(ptr noundef nonnull align 8 dereferenceable(120) %0, ptr noundef %1, i1 noundef zeroext %2, ptr noundef nonnull align 8 dereferenceable(24) %3, ptr noundef %4) unnamed_addr #1 align 2 {
  %6 = alloca ptr, align 8
  %7 = alloca ptr, align 8
  %8 = alloca i8, align 1
  %9 = alloca ptr, align 8
  %10 = alloca ptr, align 8
  %11 = alloca %"class.llvm::ElementCount", align 4
  %12 = alloca %"class.llvm::ElementCount", align 4
  store ptr %0, ptr %6, align 8
  store ptr %1, ptr %7, align 8
  %13 = zext i1 %2 to i8
  store i8 %13, ptr %8, align 1
  store ptr %3, ptr %9, align 8
  store ptr %4, ptr %10, align 8
  %14 = load ptr, ptr %6, align 8
  %15 = getelementptr inbounds nuw %"class.llvm::LoopVectorizeHints", ptr %14, i32 0, i32 0
  %16 = load i32, ptr @_ZN4llvm16VectorizerParams19VectorizationFactorE, align 4
  call void @_ZN4llvm18LoopVectorizeHints4HintC2EPKcjNS0_8HintKindE(ptr noundef nonnull align 8 dereferenceable(16) %15, ptr noundef @.str.22, i32 noundef %16, i32 noundef 0)
  %17 = getelementptr inbounds nuw %"class.llvm::LoopVectorizeHints", ptr %14, i32 0, i32 1
  %18 = load i8, ptr %8, align 1
  %19 = trunc i8 %18 to i1
  %20 = zext i1 %19 to i32
  call void @_ZN4llvm18LoopVectorizeHints4HintC2EPKcjNS0_8HintKindE(ptr noundef nonnull align 8 dereferenceable(16) %17, ptr noundef @.str.23, i32 noundef %20, i32 noundef 1)
  %21 = getelementptr inbounds nuw %"class.llvm::LoopVectorizeHints", ptr %14, i32 0, i32 2
  call void @_ZN4llvm18LoopVectorizeHints4HintC2EPKcjNS0_8HintKindE(ptr noundef nonnull align 8 dereferenceable(16) %21, ptr noundef @.str.24, i32 noundef -1, i32 noundef 2)
  %22 = getelementptr inbounds nuw %"class.llvm::LoopVectorizeHints", ptr %14, i32 0, i32 3
  call void @_ZN4llvm18LoopVectorizeHints4HintC2EPKcjNS0_8HintKindE(ptr noundef nonnull align 8 dereferenceable(16) %22, ptr noundef @.str.25, i32 noundef 0, i32 noundef 3)
  %23 = getelementptr inbounds nuw %"class.llvm::LoopVectorizeHints", ptr %14, i32 0, i32 4
  call void @_ZN4llvm18LoopVectorizeHints4HintC2EPKcjNS0_8HintKindE(ptr noundef nonnull align 8 dereferenceable(16) %23, ptr noundef @.str.26, i32 noundef -1, i32 noundef 4)
  %24 = getelementptr inbounds nuw %"class.llvm::LoopVectorizeHints", ptr %14, i32 0, i32 5
  call void @_ZN4llvm18LoopVectorizeHints4HintC2EPKcjNS0_8HintKindE(ptr noundef nonnull align 8 dereferenceable(16) %24, ptr noundef @.str.27, i32 noundef -1, i32 noundef 5)
  %25 = getelementptr inbounds nuw %"class.llvm::LoopVectorizeHints", ptr %14, i32 0, i32 6
  store i8 0, ptr %25, align 8
  %26 = getelementptr inbounds nuw %"class.llvm::LoopVectorizeHints", ptr %14, i32 0, i32 7
  %27 = load ptr, ptr %7, align 8
  store ptr %27, ptr %26, align 8
  %28 = getelementptr inbounds nuw %"class.llvm::LoopVectorizeHints", ptr %14, i32 0, i32 8
  %29 = load ptr, ptr %9, align 8
  store ptr %29, ptr %28, align 8
  call void @_ZN4llvm18LoopVectorizeHints20getHintsFromMetadataEv(ptr noundef nonnull align 8 dereferenceable(120) %14)
  %30 = call noundef zeroext i1 @_ZN4llvm16VectorizerParams18isInterleaveForcedEv()
  br i1 %30, label %31, label %35

31:                                               ; preds = %5
  %32 = load i32, ptr @_ZN4llvm16VectorizerParams23VectorizationInterleaveE, align 4
  %33 = getelementptr inbounds nuw %"class.llvm::LoopVectorizeHints", ptr %14, i32 0, i32 1
  %34 = getelementptr inbounds nuw %"struct.llvm::LoopVectorizeHints::Hint", ptr %33, i32 0, i32 1
  store i32 %32, ptr %34, align 8
  br label %35

35:                                               ; preds = %31, %5
  %36 = getelementptr inbounds nuw %"class.llvm::LoopVectorizeHints", ptr %14, i32 0, i32 5
  %37 = getelementptr inbounds nuw %"struct.llvm::LoopVectorizeHints::Hint", ptr %36, i32 0, i32 1
  %38 = load i32, ptr %37, align 8
  %39 = icmp eq i32 %38, -1
  br i1 %39, label %40, label %58

40:                                               ; preds = %35
  %41 = load ptr, ptr %10, align 8
  %42 = icmp ne ptr %41, null
  br i1 %42, label %43, label %49

43:                                               ; preds = %40
  %44 = load ptr, ptr %10, align 8
  %45 = call noundef zeroext i1 @_ZNK4llvm19TargetTransformInfo27enableScalableVectorizationEv(ptr noundef nonnull align 8 dereferenceable(8) %44)
  %46 = select i1 %45, i32 1, i32 0
  %47 = getelementptr inbounds nuw %"class.llvm::LoopVectorizeHints", ptr %14, i32 0, i32 5
  %48 = getelementptr inbounds nuw %"struct.llvm::LoopVectorizeHints::Hint", ptr %47, i32 0, i32 1
  store i32 %46, ptr %48, align 8
  br label %49

49:                                               ; preds = %43, %40
  %50 = getelementptr inbounds nuw %"class.llvm::LoopVectorizeHints", ptr %14, i32 0, i32 0
  %51 = getelementptr inbounds nuw %"struct.llvm::LoopVectorizeHints::Hint", ptr %50, i32 0, i32 1
  %52 = load i32, ptr %51, align 8
  %53 = icmp ne i32 %52, 0
  br i1 %53, label %54, label %57

54:                                               ; preds = %49
  %55 = getelementptr inbounds nuw %"class.llvm::LoopVectorizeHints", ptr %14, i32 0, i32 5
  %56 = getelementptr inbounds nuw %"struct.llvm::LoopVectorizeHints::Hint", ptr %55, i32 0, i32 1
  store i32 0, ptr %56, align 8
  br label %57

57:                                               ; preds = %54, %49
  br label %58

58:                                               ; preds = %57, %35
  %59 = call noundef nonnull align 4 dereferenceable(4) ptr @_ZN4llvm2cl11opt_storageINS_18LoopVectorizeHints17ScalableForceKindELb0ELb0EE8getValueEv(ptr noundef nonnull align 8 dereferenceable(24) getelementptr inbounds (i8, ptr @_ZL26ForceScalableVectorization, i64 128))
  %60 = load i32, ptr %59, align 4
  %61 = icmp ne i32 %60, -1
  br i1 %61, label %62, label %67

62:                                               ; preds = %58
  %63 = call noundef nonnull align 4 dereferenceable(4) ptr @_ZN4llvm2cl11opt_storageINS_18LoopVectorizeHints17ScalableForceKindELb0ELb0EE8getValueEv(ptr noundef nonnull align 8 dereferenceable(24) getelementptr inbounds (i8, ptr @_ZL26ForceScalableVectorization, i64 128))
  %64 = load i32, ptr %63, align 4
  %65 = getelementptr inbounds nuw %"class.llvm::LoopVectorizeHints", ptr %14, i32 0, i32 5
  %66 = getelementptr inbounds nuw %"struct.llvm::LoopVectorizeHints::Hint", ptr %65, i32 0, i32 1
  store i32 %64, ptr %66, align 8
  br label %67

67:                                               ; preds = %62, %58
  %68 = getelementptr inbounds nuw %"class.llvm::LoopVectorizeHints", ptr %14, i32 0, i32 5
  %69 = getelementptr inbounds nuw %"struct.llvm::LoopVectorizeHints::Hint", ptr %68, i32 0, i32 1
  %70 = load i32, ptr %69, align 8
  %71 = icmp eq i32 %70, -1
  br i1 %71, label %72, label %75

72:                                               ; preds = %67
  %73 = getelementptr inbounds nuw %"class.llvm::LoopVectorizeHints", ptr %14, i32 0, i32 5
  %74 = getelementptr inbounds nuw %"struct.llvm::LoopVectorizeHints::Hint", ptr %73, i32 0, i32 1
  store i32 0, ptr %74, align 8
  br label %75

75:                                               ; preds = %72, %67
  %76 = getelementptr inbounds nuw %"class.llvm::LoopVectorizeHints", ptr %14, i32 0, i32 3
  %77 = getelementptr inbounds nuw %"struct.llvm::LoopVectorizeHints::Hint", ptr %76, i32 0, i32 1
  %78 = load i32, ptr %77, align 8
  %79 = icmp ne i32 %78, 1
  br i1 %79, label %80, label %94

80:                                               ; preds = %75
  %81 = call i64 @_ZNK4llvm18LoopVectorizeHints8getWidthEv(ptr noundef nonnull align 8 dereferenceable(120) %14)
  %82 = trunc i64 %81 to i40
  store i40 %82, ptr %11, align 4
  %83 = call i64 @_ZN4llvm12ElementCount8getFixedEj(i32 noundef 1)
  %84 = trunc i64 %83 to i40
  store i40 %84, ptr %12, align 4
  %85 = call noundef zeroext i1 @_ZNK4llvm7details23FixedOrScalableQuantityINS_12ElementCountEjEeqERKS3_(ptr noundef nonnull align 4 dereferenceable(5) %11, ptr noundef nonnull align 4 dereferenceable(5) %12)
  br i1 %85, label %86, label %89

86:                                               ; preds = %80
  %87 = call noundef i32 @_ZNK4llvm18LoopVectorizeHints13getInterleaveEv(ptr noundef nonnull align 8 dereferenceable(120) %14)
  %88 = icmp eq i32 %87, 1
  br label %89

89:                                               ; preds = %86, %80
  %90 = phi i1 [ false, %80 ], [ %88, %86 ]
  %91 = zext i1 %90 to i32
  %92 = getelementptr inbounds nuw %"class.llvm::LoopVectorizeHints", ptr %14, i32 0, i32 3
  %93 = getelementptr inbounds nuw %"struct.llvm::LoopVectorizeHints::Hint", ptr %92, i32 0, i32 1
  store i32 %91, ptr %93, align 8
  br label %94

94:                                               ; preds = %89, %75
  br label %95

95:                                               ; preds = %94
  br label %96

96:                                               ; preds = %95
  ret void
}