; Function Attrs: mustprogress nounwind uwtable
define dso_local void @_ZN4llvm18LoopVectorizeHintsC2EPKNS_4LoopEbRNS_25OptimizationRemarkEmitterEPKNS_19TargetTransformInfoE(ptr noundef nonnull align 8 dereferenceable(120) initializes((0, 97), (104, 120)) %0, ptr noundef %1, i1 noundef zeroext %2, ptr noundef nonnull align 8 dereferenceable(24) %3, ptr noundef %4) unnamed_addr #0 align 2 {
  %6 = load i32, ptr @_ZN4llvm16VectorizerParams19VectorizationFactorE, align 4
  store ptr @.str.22, ptr %0, align 8
  %7 = getelementptr inbounds nuw i8, ptr %0, i64 8
  store i32 %6, ptr %7, align 8
  %8 = getelementptr inbounds nuw i8, ptr %0, i64 12
  store i32 0, ptr %8, align 4
  %9 = getelementptr inbounds nuw i8, ptr %0, i64 16
  %10 = zext i1 %2 to i32
  store ptr @.str.23, ptr %9, align 8
  %11 = getelementptr inbounds nuw i8, ptr %0, i64 24
  store i32 %10, ptr %11, align 8
  %12 = getelementptr inbounds nuw i8, ptr %0, i64 28
  store i32 1, ptr %12, align 4
  %13 = getelementptr inbounds nuw i8, ptr %0, i64 32
  store ptr @.str.24, ptr %13, align 8
  %14 = getelementptr inbounds nuw i8, ptr %0, i64 40
  store i32 -1, ptr %14, align 8
  %15 = getelementptr inbounds nuw i8, ptr %0, i64 44
  store i32 2, ptr %15, align 4
  %16 = getelementptr inbounds nuw i8, ptr %0, i64 48
  store ptr @.str.25, ptr %16, align 8
  %17 = getelementptr inbounds nuw i8, ptr %0, i64 56
  store i32 0, ptr %17, align 8
  %18 = getelementptr inbounds nuw i8, ptr %0, i64 60
  store i32 3, ptr %18, align 4
  %19 = getelementptr inbounds nuw i8, ptr %0, i64 64
  store ptr @.str.26, ptr %19, align 8
  %20 = getelementptr inbounds nuw i8, ptr %0, i64 72
  store i32 -1, ptr %20, align 8
  %21 = getelementptr inbounds nuw i8, ptr %0, i64 76
  store i32 4, ptr %21, align 4
  %22 = getelementptr inbounds nuw i8, ptr %0, i64 80
  store ptr @.str.27, ptr %22, align 8
  %23 = getelementptr inbounds nuw i8, ptr %0, i64 88
  store i32 -1, ptr %23, align 8
  %24 = getelementptr inbounds nuw i8, ptr %0, i64 92
  store i32 5, ptr %24, align 4
  %25 = getelementptr inbounds nuw i8, ptr %0, i64 96
  store i8 0, ptr %25, align 8
  %26 = getelementptr inbounds nuw i8, ptr %0, i64 104
  store ptr %1, ptr %26, align 8
  %27 = getelementptr inbounds nuw i8, ptr %0, i64 112
  store ptr %3, ptr %27, align 8
  tail call void @_ZN4llvm18LoopVectorizeHints20getHintsFromMetadataEv(ptr noundef nonnull align 8 dereferenceable(120) %0)
  %28 = tail call noundef zeroext i1 @_ZN4llvm16VectorizerParams18isInterleaveForcedEv() #20
  br i1 %28, label %29, label %31

29:                                               ; preds = %5
  %30 = load i32, ptr @_ZN4llvm16VectorizerParams23VectorizationInterleaveE, align 4
  store i32 %30, ptr %11, align 8
  br label %31

31:                                               ; preds = %29, %5
  %32 = load i32, ptr %23, align 8
  %33 = icmp eq i32 %32, -1
  br i1 %33, label %34, label %40

34:                                               ; preds = %31
  %.not = icmp eq ptr %4, null
  br i1 %.not, label %38, label %35

35:                                               ; preds = %34
  %36 = tail call noundef zeroext i1 @_ZNK4llvm19TargetTransformInfo27enableScalableVectorizationEv(ptr noundef nonnull align 8 dereferenceable(8) %4) #20
  %37 = zext i1 %36 to i32
  store i32 %37, ptr %23, align 8
  br label %38

38:                                               ; preds = %35, %34
  %.pr11 = phi i32 [ %37, %35 ], [ -1, %34 ]
  %39 = load i32, ptr %7, align 8
  %.not5 = icmp eq i32 %39, 0
  br i1 %.not5, label %40, label %.thread12

40:                                               ; preds = %38, %31
  %.pr = phi i32 [ %.pr11, %38 ], [ %32, %31 ]
  %41 = load i32, ptr getelementptr inbounds nuw (i8, ptr @_ZL26ForceScalableVectorization, i64 128), align 8
  %.not6 = icmp eq i32 %41, -1
  br i1 %.not6, label %43, label %.thread16.sink.split

.thread12:                                        ; preds = %38
  store i32 0, ptr %23, align 8
  %42 = load i32, ptr getelementptr inbounds nuw (i8, ptr @_ZL26ForceScalableVectorization, i64 128), align 8
  %.not614 = icmp eq i32 %42, -1
  br i1 %.not614, label %.thread16, label %.thread16.sink.split

43:                                               ; preds = %40
  %44 = icmp eq i32 %.pr, -1
  br i1 %44, label %.thread16.sink.split, label %.thread16

.thread16.sink.split:                             ; preds = %43, %40, %.thread12
  %.sink = phi i32 [ %42, %.thread12 ], [ %41, %40 ], [ 0, %43 ]
  store i32 %.sink, ptr %23, align 8
  br label %.thread16

.thread16:                                        ; preds = %.thread16.sink.split, %.thread12, %43
  %45 = phi i32 [ %.pr, %43 ], [ 0, %.thread12 ], [ %.sink, %.thread16.sink.split ]
  %46 = load i32, ptr %17, align 8
  %.not7 = icmp eq i32 %46, 1
  br i1 %.not7, label %60, label %47

47:                                               ; preds = %.thread16
  %48 = load i32, ptr %7, align 8
  %49 = icmp ne i32 %45, 1
  %50 = icmp eq i32 %48, 1
  %or.cond = and i1 %50, %49
  br i1 %or.cond, label %51, label %_ZNK4llvm7details23FixedOrScalableQuantityINS_12ElementCountEjEeqERKS3_.exit.thread

51:                                               ; preds = %47
  %52 = load i32, ptr %11, align 8
  %.not.i = icmp eq i32 %52, 0
  br i1 %.not.i, label %53, label %_ZNK4llvm18LoopVectorizeHints13getInterleaveEv.exit

53:                                               ; preds = %51
  %54 = load ptr, ptr %26, align 8
  %55 = tail call noundef i32 @_ZN4llvm23hasUnrollTransformationEPKNS_4LoopE(ptr noundef %54) #20
  %56 = lshr i32 %55, 1
  %.lobit.i = and i32 %56, 1
  br label %_ZNK4llvm18LoopVectorizeHints13getInterleaveEv.exit

_ZNK4llvm18LoopVectorizeHints13getInterleaveEv.exit: ; preds = %51, %53
  %.0.i = phi i32 [ %52, %51 ], [ %.lobit.i, %53 ]
  %57 = icmp eq i32 %.0.i, 1
  %58 = zext i1 %57 to i32
  br label %_ZNK4llvm7details23FixedOrScalableQuantityINS_12ElementCountEjEeqERKS3_.exit.thread

_ZNK4llvm7details23FixedOrScalableQuantityINS_12ElementCountEjEeqERKS3_.exit.thread: ; preds = %47, %_ZNK4llvm18LoopVectorizeHints13getInterleaveEv.exit
  %59 = phi i32 [ %58, %_ZNK4llvm18LoopVectorizeHints13getInterleaveEv.exit ], [ 0, %47 ]
  store i32 %59, ptr %17, align 8
  br label %60

60:                                               ; preds = %_ZNK4llvm7details23FixedOrScalableQuantityINS_12ElementCountEjEeqERKS3_.exit.thread, %.thread16
  ret void
}